; Function Attrs: mustprogress nofree norecurse nosync nounwind willreturn memory(read, inaccessiblemem: none) uwtable
define hidden noundef i64 @_ZNK3sat3bcd11eval_clauseERKNS_6clauseE(ptr noundef nonnull readonly align 8 captures(none) dereferenceable(80) %0, ptr noundef nonnull readonly align 4 captures(address) dereferenceable(20) %1) local_unnamed_addr #11 align 2 {
  %3 = getelementptr inbounds nuw i8, ptr %1, i64 4
  %4 = load i32, ptr %3, align 4, !tbaa !43
  %5 = zext i32 %4 to i64
  %.idx = shl nuw nsw i64 %5, 2
  %6 = getelementptr inbounds nuw i8, ptr %1, i64 %.idx
  %.ptr16 = getelementptr inbounds nuw i8, ptr %6, i64 20
  %.not13 = icmp eq i32 %4, 0
  br i1 %.not13, label %._crit_edge, label %.lr.ph

.lr.ph:                                           ; preds = %2
  %.ptr = getelementptr inbounds nuw i8, ptr %1, i64 20
  %7 = getelementptr inbounds nuw i8, ptr %0, i64 56
  %8 = load ptr, ptr %7, align 8
  br label %9

._crit_edge:                                      ; preds = %9, %2
  %.0.lcssa = phi i64 [ 0, %2 ], [ %18, %9 ]
  ret i64 %.0.lcssa

9:                                                ; preds = %.lr.ph, %9
  %.015 = phi i64 [ 0, %.lr.ph ], [ %18, %9 ]
  %.0914 = phi ptr [ %.ptr, %.lr.ph ], [ %19, %9 ]
  %10 = load i32, ptr %.0914, align 4, !tbaa !24
  %11 = lshr i32 %10, 1
  %12 = zext nneg i32 %11 to i64
  %13 = getelementptr inbounds nuw i64, ptr %8, i64 %12
  %14 = load i64, ptr %13, align 8, !tbaa !76
  %15 = and i32 %10, 1
  %sext = sub nsw i32 0, %15
  %16 = sext i32 %sext to i64
  %17 = xor i64 %14, %16
  %18 = or i64 %17, %.015
  %19 = getelementptr inbounds nuw i8, ptr %.0914, i64 4
  %.not = icmp eq ptr %19, %.ptr16
  br i1 %.not, label %._crit_edge, label %9
}